; Function Attrs: mustprogress nofree nounwind memory(argmem: readwrite) uwtable
define void @_Z18RemoveNameFromPathPw(ptr noundef captures(none) %0) local_unnamed_addr #10 {
  %2 = tail call i64 @wcslen(ptr noundef readonly %0) #18
  %3 = and i64 %2, 4294967295
  br label %4

4:                                                ; preds = %7, %1
  %indvars.iv.i = phi i64 [ %8, %7 ], [ %3, %1 ]
  %5 = trunc nuw i64 %indvars.iv.i to i32
  %6 = icmp sgt i32 %5, 0
  br i1 %6, label %7, label %_Z11PointToNamePKw.exit.thread

7:                                                ; preds = %4
  %8 = add nsw i64 %indvars.iv.i, -1
  %9 = getelementptr inbounds nuw i32, ptr %0, i64 %8
  %10 = load i32, ptr %9, align 4
  %11 = icmp eq i32 %10, 47
  br i1 %11, label %_Z11PointToNamePKw.exit, label %4, !llvm.loop !4

_Z11PointToNamePKw.exit:                          ; preds = %7
  %.idx = shl nuw nsw i64 %indvars.iv.i, 2
  %12 = getelementptr inbounds nuw i8, ptr %0, i64 %.idx
  %.not = icmp ult i64 %indvars.iv.i, 2
  %spec.select.idx = select i1 %.not, i64 0, i64 -4
  %spec.select = getelementptr inbounds i8, ptr %12, i64 %spec.select.idx
  br label %_Z11PointToNamePKw.exit.thread

_Z11PointToNamePKw.exit.thread:                   ; preds = %4, %_Z11PointToNamePKw.exit
  %.0 = phi ptr [ %spec.select, %_Z11PointToNamePKw.exit ], [ %0, %4 ]
  store i32 0, ptr %.0, align 4
  ret void
}